; Function Attrs: nofree nosync nounwind memory(readwrite, inaccessiblemem: none) uwtable
define i32 @Pas_ManVerifyPhaseOne_rec(ptr noundef %0, ptr noundef %1) local_unnamed_addr #0 {
  %3 = getelementptr inbounds nuw i8, ptr %0, i64 616
  %4 = load ptr, ptr %3, align 8
  %5 = getelementptr i8, ptr %0, i64 32
  %.val.i = load ptr, ptr %5, align 8
  %6 = ptrtoint ptr %1 to i64
  %7 = ptrtoint ptr %.val.i to i64
  %8 = sub i64 %6, %7
  %9 = sdiv exact i64 %8, 12
  %sext.i = shl i64 %9, 32
  %10 = ashr exact i64 %sext.i, 30
  %11 = getelementptr inbounds i8, ptr %4, i64 %10
  %12 = load i32, ptr %11, align 4
  %13 = getelementptr inbounds nuw i8, ptr %0, i64 176
  %14 = load i32, ptr %13, align 8
  %.not = icmp eq i32 %12, %14
  br i1 %.not, label %common.ret, label %17

common.ret:                                       ; preds = %2
  %15 = getelementptr inbounds nuw i8, ptr %1, i64 8
  %16 = load i32, ptr %15, align 4
  br label %common.ret23

common.ret23:                                     ; preds = %17, %common.ret
  %common.ret23.op = phi i32 [ %16, %common.ret ], [ %37, %17 ]
  ret i32 %common.ret23.op

17:                                               ; preds = %2
  store i32 %14, ptr %11, align 4
  %18 = load i64, ptr %1, align 4
  %19 = and i64 %18, 536870911
  %20 = sub nsw i64 0, %19
  %21 = getelementptr inbounds %struct.Gia_Obj_t_, ptr %1, i64 %20
  %22 = tail call i32 @Pas_ManVerifyPhaseOne_rec(ptr noundef nonnull %0, ptr noundef nonnull %21)
  %23 = load i64, ptr %1, align 4
  %24 = lshr i64 %23, 32
  %25 = and i64 %24, 536870911
  %26 = sub nsw i64 0, %25
  %27 = getelementptr inbounds %struct.Gia_Obj_t_, ptr %1, i64 %26
  %28 = tail call i32 @Pas_ManVerifyPhaseOne_rec(ptr noundef nonnull %0, ptr noundef nonnull %27)
  %.val = load i64, ptr %1, align 4
  %29 = and i64 %.val, 536870912
  %.not18 = icmp eq i64 %29, 0
  %30 = and i32 %22, 255
  %31 = xor i32 %30, 255
  %32 = select i1 %.not18, i32 %22, i32 %31
  %33 = and i64 %.val, 2305843009213693952
  %.not19 = icmp eq i64 %33, 0
  %34 = and i32 %28, 255
  %35 = xor i32 %34, 255
  %36 = select i1 %.not19, i32 %28, i32 %35
  %37 = and i32 %32, %36
  %38 = getelementptr inbounds nuw i8, ptr %1, i64 8
  store i32 %37, ptr %38, align 4
  br label %common.ret23
}